target datalayout = "e-m:e-p270:32:32-p271:32:32-p272:64:64-i64:64-i128:128-f80:128-n8:16:32:64-S128"
target triple = "x86_64-pc-linux-gnu"

@hf_lcp_opt_asyncmap = internal global i32 0, align 4
@ett_lcp_asyncmap_opt = internal global i32 0, align 4
@proto_lcp_option_async_map = internal global i32 0, align 4
@.str.1010 = private unnamed_addr constant [5 x i8] c", %s\00", align 1
@.str.1319 = private unnamed_addr constant [9 x i8] c": 0x%08x\00", align 1
@.str.1320 = private unnamed_addr constant [8 x i8] c" (None)\00", align 1
@.str.1321 = private unnamed_addr constant [7 x i8] c" (All)\00", align 1
@.str.1322 = private unnamed_addr constant [3 x i8] c"%s\00", align 1
@.str.1323 = private unnamed_addr constant [2 x i8] c")\00", align 1

; Function Attrs: null_pointer_is_valid sspstrong uwtable
define internal i32 @dissect_lcp_async_map_opt(ptr noundef %0, ptr noundef %1, ptr noundef %2, ptr noundef %3) #1 {
  %5 = alloca i32, align 4
  %6 = alloca ptr, align 8
  %7 = alloca ptr, align 8
  %8 = alloca ptr, align 8
  %9 = alloca ptr, align 8
  %10 = alloca ptr, align 8
  %11 = alloca ptr, align 8
  %12 = alloca ptr, align 8
  %13 = alloca i32, align 4
  %14 = alloca i32, align 4
  %15 = alloca i8, align 1
  %16 = alloca i32, align 4
  %17 = alloca i32, align 4
  store ptr %0, ptr %6, align 8
  store ptr %1, ptr %7, align 8
  store ptr %2, ptr %8, align 8
  store ptr %3, ptr %9, align 8
  call void @llvm.lifetime.start.p0(i64 8, ptr %10) #6
  call void @llvm.lifetime.start.p0(i64 8, ptr %11) #6
  call void @llvm.lifetime.start.p0(i64 8, ptr %12) #6
  call void @llvm.lifetime.start.p0(i64 4, ptr %13) #6
  store i32 0, ptr %13, align 4
  call void @llvm.lifetime.start.p0(i64 4, ptr %14) #6
  call void @llvm.lifetime.start.p0(i64 1, ptr %15) #6
  call void @llvm.lifetime.start.p0(i64 4, ptr %16) #6
  %18 = load ptr, ptr %6, align 8
  %19 = load ptr, ptr %7, align 8
  %20 = load ptr, ptr %8, align 8
  %21 = load i32, ptr @proto_lcp_option_async_map, align 4
  %22 = load i32, ptr @ett_lcp_asyncmap_opt, align 4
  %23 = call zeroext i1 @dissect_lcp_fixed_opt(ptr noundef %18, ptr noundef %19, ptr noundef %20, i32 noundef %21, i32 noundef %22, i32 noundef 6, ptr noundef %10, ptr noundef %11)
  br i1 %23, label %27, label %24

24:                                               ; preds = %4
  %25 = load ptr, ptr %6, align 8
  %26 = call i32 @tvb_captured_length(ptr noundef %25)
  store i32 %26, ptr %5, align 4
  store i32 1, ptr %17, align 4
  br label %88

27:                                               ; preds = %4
  %28 = load ptr, ptr %6, align 8
  %29 = load i32, ptr %13, align 4
  %30 = add i32 %29, 2
  %31 = call i32 @tvb_get_ntohl(ptr noundef %28, i32 noundef %30)
  store i32 %31, ptr %14, align 4
  %32 = load ptr, ptr %11, align 8
  %33 = load i32, ptr %14, align 4
  call void (ptr, ptr, ...) @proto_item_append_text(ptr noundef %32, ptr noundef @.str.1319, i32 noundef %33)
  %34 = load ptr, ptr %10, align 8
  %35 = load ptr, ptr %6, align 8
  %36 = load i32, ptr %13, align 4
  %37 = add i32 %36, 2
  %38 = load i32, ptr @hf_lcp_opt_asyncmap, align 4
  %39 = load i32, ptr @ett_lcp_asyncmap_opt, align 4
  %40 = call ptr @proto_tree_add_bitmask(ptr noundef %34, ptr noundef %35, i32 noundef %37, i32 noundef %38, i32 noundef %39, ptr noundef @dissect_lcp_async_map_opt.asyncmap_fields, i32 noundef 0)
  store ptr %40, ptr %12, align 8
  %41 = load i32, ptr %14, align 4
  %42 = icmp eq i32 %41, 0
  br i1 %42, label %43, label %46

43:                                               ; preds = %27
  %44 = load ptr, ptr %11, align 8
  call void (ptr, ptr, ...) @proto_item_append_text(ptr noundef %44, ptr noundef @.str.1320)
  %45 = load ptr, ptr %12, align 8
  call void (ptr, ptr, ...) @proto_item_append_text(ptr noundef %45, ptr noundef @.str.1320)
  br label %85

46:                                               ; preds = %27
  %47 = load i32, ptr %14, align 4
  %48 = icmp eq i32 %47, -1
  br i1 %48, label %49, label %52

49:                                               ; preds = %46
  %50 = load ptr, ptr %11, align 8
  call void (ptr, ptr, ...) @proto_item_append_text(ptr noundef %50, ptr noundef @.str.1321)
  %51 = load ptr, ptr %12, align 8
  call void (ptr, ptr, ...) @proto_item_append_text(ptr noundef %51, ptr noundef @.str.1321)
  br label %84

52:                                               ; preds = %46
  store i8 0, ptr %15, align 1
  store i32 31, ptr %16, align 4
  br label %53

53:                                               ; preds = %79, %52
  %54 = load i32, ptr %16, align 4
  %55 = icmp sge i32 %54, 0
  br i1 %55, label %56, label %82

56:                                               ; preds = %53
  %57 = load i32, ptr %14, align 4
  %58 = load i32, ptr %16, align 4
  %59 = shl i32 1, %58
  %60 = and i32 %57, %59
  %61 = icmp ne i32 %60, 0
  br i1 %61, label %62, label %78

62:                                               ; preds = %56
  %63 = load i8, ptr %15, align 1, !range !6, !noundef !7
  %64 = trunc i8 %63 to i1
  br i1 %64, label %65, label %71

65:                                               ; preds = %62
  %66 = load ptr, ptr %11, align 8
  %67 = load i32, ptr %16, align 4
  %68 = sext i32 %67 to i64
  %69 = getelementptr [32 x ptr], ptr @dissect_lcp_async_map_opt.ctrlchars, i64 0, i64 %68
  %70 = load ptr, ptr %69, align 8
  call void (ptr, ptr, ...) @proto_item_append_text(ptr noundef %66, ptr noundef @.str.1010, ptr noundef %70)
  br label %77

71:                                               ; preds = %62
  store i8 1, ptr %15, align 1
  %72 = load ptr, ptr %11, align 8
  %73 = load i32, ptr %16, align 4
  %74 = sext i32 %73 to i64
  %75 = getelementptr [32 x ptr], ptr @dissect_lcp_async_map_opt.ctrlchars, i64 0, i64 %74
  %76 = load ptr, ptr %75, align 8
  call void (ptr, ptr, ...) @proto_item_append_text(ptr noundef %72, ptr noundef @.str.1322, ptr noundef %76)
  br label %77

77:                                               ; preds = %71, %65
  br label %78

78:                                               ; preds = %77, %56
  br label %79

79:                                               ; preds = %78
  %80 = load i32, ptr %16, align 4
  %81 = add i32 %80, -1
  store i32 %81, ptr %16, align 4
  br label %53, !llvm.loop !10

82:                                               ; preds = %53
  %83 = load ptr, ptr %11, align 8
  call void (ptr, ptr, ...) @proto_item_append_text(ptr noundef %83, ptr noundef @.str.1323)
  br label %84

84:                                               ; preds = %82, %49
  br label %85

85:                                               ; preds = %84, %43
  %86 = load ptr, ptr %6, align 8
  %87 = call i32 @tvb_captured_length(ptr noundef %86)
  store i32 %87, ptr %5, align 4
  store i32 1, ptr %17, align 4
  br label %88

88:                                               ; preds = %85, %24
  call void @llvm.lifetime.end.p0(i64 4, ptr %16) #6
  call void @llvm.lifetime.end.p0(i64 1, ptr %15) #6
  call void @llvm.lifetime.end.p0(i64 4, ptr %14) #6
  call void @llvm.lifetime.end.p0(i64 4, ptr %13) #6
  call void @llvm.lifetime.end.p0(i64 8, ptr %12) #6
  call void @llvm.lifetime.end.p0(i64 8, ptr %11) #6
  call void @llvm.lifetime.end.p0(i64 8, ptr %10) #6
  %89 = load i32, ptr %5, align 4
  ret i32 %89
}