; Function Attrs: null_pointer_is_valid sspstrong uwtable
define internal i32 @dissect_lcp_async_map_opt(ptr noundef %0, ptr noundef %1, ptr noundef %2, ptr readnone captures(none) %3) #1 {
  %5 = alloca ptr, align 8
  %6 = alloca ptr, align 8
  call void @llvm.lifetime.start.p0(i64 8, ptr nonnull %5) #8
  call void @llvm.lifetime.start.p0(i64 8, ptr nonnull %6) #8
  %7 = load i32, ptr @proto_lcp_option_async_map, align 4
  %8 = load i32, ptr @ett_lcp_asyncmap_opt, align 4
  %9 = call fastcc zeroext i1 @dissect_lcp_fixed_opt(ptr noundef %0, ptr noundef %1, ptr noundef %2, i32 noundef %7, i32 noundef %8, i32 noundef 6, ptr noundef nonnull %5, ptr noundef nonnull %6)
  br i1 %9, label %10, label %26

10:                                               ; preds = %4
  %11 = tail call i32 @tvb_get_ntohl(ptr noundef %0, i32 noundef 2)
  %12 = load ptr, ptr %6, align 8
  tail call void (ptr, ptr, ...) @proto_item_append_text(ptr noundef %12, ptr noundef nonnull @.str.1319, i32 noundef %11)
  %13 = load ptr, ptr %5, align 8
  %14 = load i32, ptr @hf_lcp_opt_asyncmap, align 4
  %15 = load i32, ptr @ett_lcp_asyncmap_opt, align 4
  %16 = tail call ptr @proto_tree_add_bitmask(ptr noundef %13, ptr noundef %0, i32 noundef 2, i32 noundef %14, i32 noundef %15, ptr noundef nonnull @dissect_lcp_async_map_opt.asyncmap_fields, i32 noundef 0)
  switch i32 %11, label %.preheader [
    i32 0, label %17
    i32 -1, label %18
  ]

17:                                               ; preds = %10
  tail call void (ptr, ptr, ...) @proto_item_append_text(ptr noundef %12, ptr noundef nonnull @.str.1320)
  tail call void (ptr, ptr, ...) @proto_item_append_text(ptr noundef %16, ptr noundef nonnull @.str.1320)
  br label %26

18:                                               ; preds = %10
  tail call void (ptr, ptr, ...) @proto_item_append_text(ptr noundef %12, ptr noundef nonnull @.str.1321)
  tail call void (ptr, ptr, ...) @proto_item_append_text(ptr noundef %16, ptr noundef nonnull @.str.1321)
  br label %26

.preheader:                                       ; preds = %10, %24
  %indvars.iv = phi i64 [ %indvars.iv.next, %24 ], [ 31, %10 ]
  %.02124 = phi i1 [ %.1, %24 ], [ false, %10 ]
  %19 = trunc nuw nsw i64 %indvars.iv to i32
  %20 = shl nuw i32 1, %19
  %21 = and i32 %20, %11
  %.not = icmp eq i32 %21, 0
  br i1 %.not, label %24, label %.sink.split

.sink.split:                                      ; preds = %.preheader
  %22 = getelementptr [32 x ptr], ptr @dissect_lcp_async_map_opt.ctrlchars, i64 0, i64 %indvars.iv
  %23 = load ptr, ptr %22, align 8
  %.str.1010..str.1322 = select i1 %.02124, ptr @.str.1010, ptr @.str.1322
  tail call void (ptr, ptr, ...) @proto_item_append_text(ptr noundef %12, ptr noundef nonnull %.str.1010..str.1322, ptr noundef %23)
  br label %24

24:                                               ; preds = %.sink.split, %.preheader
  %.1 = phi i1 [ %.02124, %.preheader ], [ true, %.sink.split ]
  %indvars.iv.next = add nsw i64 %indvars.iv, -1
  %.not26 = icmp eq i64 %indvars.iv, 0
  br i1 %.not26, label %25, label %.preheader, !llvm.loop !11

25:                                               ; preds = %24
  tail call void (ptr, ptr, ...) @proto_item_append_text(ptr noundef %12, ptr noundef nonnull @.str.1323)
  br label %26

26:                                               ; preds = %17, %25, %18, %4
  %27 = tail call i32 @tvb_captured_length(ptr noundef %0)
  call void @llvm.lifetime.end.p0(i64 8, ptr nonnull %6) #8
  call void @llvm.lifetime.end.p0(i64 8, ptr nonnull %5) #8
  ret i32 %27
}